target datalayout = "e-m:e-p270:32:32-p271:32:32-p272:64:64-i64:64-i128:128-f80:128-n8:16:32:64-S128"
target triple = "x86_64-pc-linux-gnu"

%"class.tinyxml2::StrPair" = type { i32, ptr, ptr }
%"class.tinyxml2::XMLNode" = type { ptr, ptr, ptr, %"class.tinyxml2::StrPair", i32, ptr, ptr, ptr, ptr, ptr, ptr }

; Function Attrs: mustprogress uwtable
define noundef ptr @_ZNK8tinyxml27XMLNode5ValueEv(ptr noundef nonnull align 8 dereferenceable(104) %0) #2 align 2 {
  %2 = alloca ptr, align 8
  %3 = alloca ptr, align 8
  store ptr %0, ptr %3, align 8, !tbaa !85
  %4 = load ptr, ptr %3, align 8
  %5 = load ptr, ptr %4, align 8, !tbaa !91
  %6 = getelementptr inbounds ptr, ptr %5, i64 9
  %7 = load ptr, ptr %6, align 8
  %8 = call noundef ptr %7(ptr noundef nonnull align 8 dereferenceable(104) %4)
  %9 = icmp ne ptr %8, null
  br i1 %9, label %10, label %11

10:                                               ; preds = %1
  store ptr null, ptr %2, align 8
  br label %14

11:                                               ; preds = %1
  %12 = getelementptr inbounds nuw %"class.tinyxml2::XMLNode", ptr %4, i32 0, i32 3
  %13 = call noundef ptr @_ZN8tinyxml27StrPair6GetStrEv(ptr noundef nonnull align 8 dereferenceable(24) %12)
  store ptr %13, ptr %2, align 8
  br label %14

14:                                               ; preds = %11, %10
  %15 = load ptr, ptr %2, align 8
  ret ptr %15
}

; Function Attrs: inlinehint mustprogress nounwind uwtable
define linkonce_odr hidden noundef zeroext i1 @_ZN8tinyxml27XMLUtil11StringEqualEPKcS2_i(ptr noundef %0, ptr noundef %1, i32 noundef %2) #8 comdat align 2 {
  %4 = alloca i1, align 1
  %5 = alloca ptr, align 8
  %6 = alloca ptr, align 8
  %7 = alloca i32, align 4
  store ptr %0, ptr %5, align 8, !tbaa !14
  store ptr %1, ptr %6, align 8, !tbaa !14
  store i32 %2, ptr %7, align 4, !tbaa !15
  %8 = load ptr, ptr %5, align 8, !tbaa !14
  %9 = load ptr, ptr %6, align 8, !tbaa !14
  %10 = icmp eq ptr %8, %9
  br i1 %10, label %11, label %12

11:                                               ; preds = %3
  store i1 true, ptr %4, align 1
  br label %19

12:                                               ; preds = %3
  %13 = load ptr, ptr %5, align 8, !tbaa !14
  %14 = load ptr, ptr %6, align 8, !tbaa !14
  %15 = load i32, ptr %7, align 4, !tbaa !15
  %16 = sext i32 %15 to i64
  %17 = call i32 @strncmp(ptr noundef %13, ptr noundef %14, i64 noundef %16) #19
  %18 = icmp eq i32 %17, 0
  store i1 %18, ptr %4, align 1
  br label %19

19:                                               ; preds = %12, %11
  %20 = load i1, ptr %4, align 1
  ret i1 %20
}

; Function Attrs: mustprogress uwtable
define linkonce_odr hidden noundef ptr @_ZNK8tinyxml210XMLElement4NameEv(ptr noundef nonnull align 8 dereferenceable(120) %0) #2 comdat align 2 {
  %2 = alloca ptr, align 8
  store ptr %0, ptr %2, align 8, !tbaa !106
  %3 = load ptr, ptr %2, align 8
  %4 = call noundef ptr @_ZNK8tinyxml27XMLNode5ValueEv(ptr noundef nonnull align 8 dereferenceable(104) %3)
  ret ptr %4
}

; Function Attrs: mustprogress uwtable
define noundef ptr @_ZNK8tinyxml27XMLNode17ToElementWithNameEPKc(ptr noundef nonnull align 8 dereferenceable(104) %0, ptr noundef %1) #2 align 2 {
  %3 = alloca ptr, align 8
  %4 = alloca ptr, align 8
  %5 = alloca ptr, align 8
  %6 = alloca ptr, align 8
  %7 = alloca i32, align 4
  store ptr %0, ptr %4, align 8, !tbaa !85
  store ptr %1, ptr %5, align 8, !tbaa !14
  %8 = load ptr, ptr %4, align 8
  call void @llvm.lifetime.start.p0(i64 8, ptr %6) #18
  %9 = load ptr, ptr %8, align 8, !tbaa !91
  %10 = getelementptr inbounds ptr, ptr %9, i64 6
  %11 = load ptr, ptr %10, align 8
  %12 = call noundef ptr %11(ptr noundef nonnull align 8 dereferenceable(104) %8)
  store ptr %12, ptr %6, align 8, !tbaa !106
  %13 = load ptr, ptr %6, align 8, !tbaa !106
  %14 = icmp eq ptr %13, null
  br i1 %14, label %15, label %16

15:                                               ; preds = %2
  store ptr null, ptr %3, align 8
  store i32 1, ptr %7, align 4
  br label %29

16:                                               ; preds = %2
  %17 = load ptr, ptr %5, align 8, !tbaa !14
  %18 = icmp eq ptr %17, null
  br i1 %18, label %19, label %21

19:                                               ; preds = %16
  %20 = load ptr, ptr %6, align 8, !tbaa !106
  store ptr %20, ptr %3, align 8
  store i32 1, ptr %7, align 4
  br label %29

21:                                               ; preds = %16
  %22 = load ptr, ptr %6, align 8, !tbaa !106
  %23 = call noundef ptr @_ZNK8tinyxml210XMLElement4NameEv(ptr noundef nonnull align 8 dereferenceable(120) %22)
  %24 = load ptr, ptr %5, align 8, !tbaa !14
  %25 = call noundef zeroext i1 @_ZN8tinyxml27XMLUtil11StringEqualEPKcS2_i(ptr noundef %23, ptr noundef %24, i32 noundef 2147483647)
  br i1 %25, label %26, label %28

26:                                               ; preds = %21
  %27 = load ptr, ptr %6, align 8, !tbaa !106
  store ptr %27, ptr %3, align 8
  store i32 1, ptr %7, align 4
  br label %29

28:                                               ; preds = %21
  store ptr null, ptr %3, align 8
  store i32 1, ptr %7, align 4
  br label %29

29:                                               ; preds = %28, %26, %19, %15
  call void @llvm.lifetime.end.p0(i64 8, ptr %6) #18
  %30 = load ptr, ptr %3, align 8
  ret ptr %30
}

; Function Attrs: mustprogress uwtable
define noundef ptr @_ZNK8tinyxml27XMLNode18NextSiblingElementEPKc(ptr noundef nonnull align 8 dereferenceable(104) %0, ptr noundef %1) #2 align 2 {
  %3 = alloca ptr, align 8
  %4 = alloca ptr, align 8
  %5 = alloca ptr, align 8
  %6 = alloca ptr, align 8
  %7 = alloca i32, align 4
  %8 = alloca ptr, align 8
  store ptr %0, ptr %4, align 8, !tbaa !85
  store ptr %1, ptr %5, align 8, !tbaa !14
  %9 = load ptr, ptr %4, align 8
  call void @llvm.lifetime.start.p0(i64 8, ptr %6) #18
  %10 = getelementptr inbounds nuw %"class.tinyxml2::XMLNode", ptr %9, i32 0, i32 8
  %11 = load ptr, ptr %10, align 8, !tbaa !112
  store ptr %11, ptr %6, align 8, !tbaa !85
  br label %12

12:                                               ; preds = %28, %2
  %13 = load ptr, ptr %6, align 8, !tbaa !85
  %14 = icmp ne ptr %13, null
  br i1 %14, label %16, label %15

15:                                               ; preds = %12
  store i32 2, ptr %7, align 4
  br label %32

16:                                               ; preds = %12
  call void @llvm.lifetime.start.p0(i64 8, ptr %8) #18
  %17 = load ptr, ptr %6, align 8, !tbaa !85
  %18 = load ptr, ptr %5, align 8, !tbaa !14
  %19 = call noundef ptr @_ZNK8tinyxml27XMLNode17ToElementWithNameEPKc(ptr noundef nonnull align 8 dereferenceable(104) %17, ptr noundef %18)
  store ptr %19, ptr %8, align 8, !tbaa !106
  %20 = load ptr, ptr %8, align 8, !tbaa !106
  %21 = icmp ne ptr %20, null
  br i1 %21, label %22, label %24

22:                                               ; preds = %16
  %23 = load ptr, ptr %8, align 8, !tbaa !106
  store ptr %23, ptr %3, align 8
  store i32 1, ptr %7, align 4
  br label %25

24:                                               ; preds = %16
  store i32 0, ptr %7, align 4
  br label %25

25:                                               ; preds = %24, %22
  call void @llvm.lifetime.end.p0(i64 8, ptr %8) #18
  %26 = load i32, ptr %7, align 4
  switch i32 %26, label %32 [
    i32 0, label %27
  ]

27:                                               ; preds = %25
  br label %28

28:                                               ; preds = %27
  %29 = load ptr, ptr %6, align 8, !tbaa !85
  %30 = getelementptr inbounds nuw %"class.tinyxml2::XMLNode", ptr %29, i32 0, i32 8
  %31 = load ptr, ptr %30, align 8, !tbaa !112
  store ptr %31, ptr %6, align 8, !tbaa !85
  br label %12, !llvm.loop !123

32:                                               ; preds = %25, %15
  call void @llvm.lifetime.end.p0(i64 8, ptr %6) #18
  %33 = load i32, ptr %7, align 4
  switch i32 %33, label %37 [
    i32 2, label %34
    i32 1, label %35
  ]

34:                                               ; preds = %32
  store ptr null, ptr %3, align 8
  br label %35

35:                                               ; preds = %34, %32
  %36 = load ptr, ptr %3, align 8
  ret ptr %36

37:                                               ; preds = %32
  unreachable
}