; Function Attrs: mustprogress uwtable
define noundef ptr @_ZNK8tinyxml27XMLNode18NextSiblingElementEPKc(ptr noundef nonnull readonly align 8 captures(none) dereferenceable(104) %0, ptr noundef readonly captures(address) %1) local_unnamed_addr #4 align 2 {
  %.011.in17 = getelementptr inbounds nuw i8, ptr %0, i64 80
  %.01118 = load ptr, ptr %.011.in17, align 8, !tbaa !77
  %.not19 = icmp eq ptr %.01118, null
  br i1 %.not19, label %_ZNK8tinyxml27XMLNode17ToElementWithNameEPKc.exit.thread, label %.lr.ph

.lr.ph:                                           ; preds = %2
  %3 = icmp eq ptr %1, null
  br i1 %3, label %.lr.ph.split.us, label %.lr.ph.split

.lr.ph.split.us:                                  ; preds = %.lr.ph, %_ZNK8tinyxml27XMLNode17ToElementWithNameEPKc.exit.us
  %.01120.us = phi ptr [ %.011.us, %_ZNK8tinyxml27XMLNode17ToElementWithNameEPKc.exit.us ], [ %.01118, %.lr.ph ]
  %4 = load ptr, ptr %.01120.us, align 8, !tbaa !63
  %5 = getelementptr inbounds nuw i8, ptr %4, i64 48
  %6 = load ptr, ptr %5, align 8
  %7 = tail call noundef ptr %6(ptr noundef nonnull align 8 dereferenceable(104) %.01120.us)
  %8 = icmp eq ptr %7, null
  br i1 %8, label %_ZNK8tinyxml27XMLNode17ToElementWithNameEPKc.exit.us, label %_ZNK8tinyxml27XMLNode17ToElementWithNameEPKc.exit.thread

_ZNK8tinyxml27XMLNode17ToElementWithNameEPKc.exit.us: ; preds = %.lr.ph.split.us
  %.011.in.us = getelementptr inbounds nuw i8, ptr %.01120.us, i64 80
  %.011.us = load ptr, ptr %.011.in.us, align 8, !tbaa !77
  %.not.us = icmp eq ptr %.011.us, null
  br i1 %.not.us, label %_ZNK8tinyxml27XMLNode17ToElementWithNameEPKc.exit.thread, label %.lr.ph.split.us, !llvm.loop !85

.lr.ph.split:                                     ; preds = %.lr.ph, %_ZNK8tinyxml27XMLNode17ToElementWithNameEPKc.exit
  %.01120 = phi ptr [ %.011, %_ZNK8tinyxml27XMLNode17ToElementWithNameEPKc.exit ], [ %.01118, %.lr.ph ]
  %9 = load ptr, ptr %.01120, align 8, !tbaa !63
  %10 = getelementptr inbounds nuw i8, ptr %9, i64 48
  %11 = load ptr, ptr %10, align 8
  %12 = tail call noundef ptr %11(ptr noundef nonnull align 8 dereferenceable(104) %.01120)
  %13 = icmp eq ptr %12, null
  br i1 %13, label %_ZNK8tinyxml27XMLNode17ToElementWithNameEPKc.exit, label %14

14:                                               ; preds = %.lr.ph.split
  %15 = load ptr, ptr %12, align 8, !tbaa !63
  %16 = getelementptr inbounds nuw i8, ptr %15, i64 72
  %17 = load ptr, ptr %16, align 8
  %18 = tail call noundef ptr %17(ptr noundef nonnull align 8 dereferenceable(120) %12)
  %.not.i.i.i = icmp eq ptr %18, null
  br i1 %.not.i.i.i, label %19, label %_ZNK8tinyxml210XMLElement4NameEv.exit.i

19:                                               ; preds = %14
  %20 = getelementptr inbounds nuw i8, ptr %12, i64 24
  %21 = tail call noundef ptr @_ZN8tinyxml27StrPair6GetStrEv(ptr noundef nonnull align 8 dereferenceable(24) %20)
  br label %_ZNK8tinyxml210XMLElement4NameEv.exit.i

_ZNK8tinyxml210XMLElement4NameEv.exit.i:          ; preds = %19, %14
  %.0.i.i.i = phi ptr [ %21, %19 ], [ null, %14 ]
  %22 = icmp eq ptr %.0.i.i.i, %1
  br i1 %22, label %_ZNK8tinyxml27XMLNode17ToElementWithNameEPKc.exit.thread, label %_ZN8tinyxml27XMLUtil11StringEqualEPKcS2_i.exit.i

_ZN8tinyxml27XMLUtil11StringEqualEPKcS2_i.exit.i: ; preds = %_ZNK8tinyxml210XMLElement4NameEv.exit.i
  %23 = tail call i32 @strncmp(ptr noundef nonnull dereferenceable(1) %.0.i.i.i, ptr noundef nonnull readonly dereferenceable(1) %1, i64 noundef 2147483647) #33
  %.fr.i = freeze i32 %23
  %24 = icmp eq i32 %.fr.i, 0
  br i1 %24, label %_ZNK8tinyxml27XMLNode17ToElementWithNameEPKc.exit.thread, label %_ZNK8tinyxml27XMLNode17ToElementWithNameEPKc.exit

_ZNK8tinyxml27XMLNode17ToElementWithNameEPKc.exit: ; preds = %.lr.ph.split, %_ZN8tinyxml27XMLUtil11StringEqualEPKcS2_i.exit.i
  %.011.in = getelementptr inbounds nuw i8, ptr %.01120, i64 80
  %.011 = load ptr, ptr %.011.in, align 8, !tbaa !77
  %.not = icmp eq ptr %.011, null
  br i1 %.not, label %_ZNK8tinyxml27XMLNode17ToElementWithNameEPKc.exit.thread, label %.lr.ph.split, !llvm.loop !85

_ZNK8tinyxml27XMLNode17ToElementWithNameEPKc.exit.thread: ; preds = %_ZNK8tinyxml27XMLNode17ToElementWithNameEPKc.exit, %_ZN8tinyxml27XMLUtil11StringEqualEPKcS2_i.exit.i, %_ZNK8tinyxml210XMLElement4NameEv.exit.i, %_ZNK8tinyxml27XMLNode17ToElementWithNameEPKc.exit.us, %.lr.ph.split.us, %2
  %spec.select = phi ptr [ null, %2 ], [ %7, %.lr.ph.split.us ], [ null, %_ZNK8tinyxml27XMLNode17ToElementWithNameEPKc.exit.us ], [ %12, %_ZNK8tinyxml210XMLElement4NameEv.exit.i ], [ %12, %_ZN8tinyxml27XMLUtil11StringEqualEPKcS2_i.exit.i ], [ null, %_ZNK8tinyxml27XMLNode17ToElementWithNameEPKc.exit ]
  ret ptr %spec.select
}